target datalayout = "e-m:e-p270:32:32-p271:32:32-p272:64:64-i64:64-i128:128-f80:128-n8:16:32:64-S128"
target triple = "x86_64-pc-linux-gnu"

%struct.Rtm_Obj_t_ = type { ptr, i32, i32, i32, i32, [0 x ptr] }

; Function Attrs: nounwind uwtable
define void @Rtm_ObjAddFanin(ptr noundef %0, ptr noundef %1, i32 noundef %2) #0 {
  %4 = alloca ptr, align 8
  %5 = alloca ptr, align 8
  %6 = alloca i32, align 4
  store ptr %0, ptr %4, align 8, !tbaa !40
  store ptr %1, ptr %5, align 8, !tbaa !40
  store i32 %2, ptr %6, align 4, !tbaa !21
  %7 = load ptr, ptr %5, align 8, !tbaa !40
  %8 = load ptr, ptr %4, align 8, !tbaa !40
  %9 = getelementptr inbounds nuw %struct.Rtm_Obj_t_, ptr %8, i32 0, i32 5
  %10 = load ptr, ptr %4, align 8, !tbaa !40
  %11 = getelementptr inbounds nuw %struct.Rtm_Obj_t_, ptr %10, i32 0, i32 1
  %12 = load i32, ptr %11, align 8
  %13 = lshr i32 %12, 7
  %14 = and i32 %13, 255
  %15 = zext i32 %14 to i64
  %16 = trunc i64 %15 to i32
  %17 = mul nsw i32 2, %16
  %18 = sext i32 %17 to i64
  %19 = getelementptr inbounds [0 x ptr], ptr %9, i64 0, i64 %18
  store ptr %7, ptr %19, align 8, !tbaa !45
  %20 = load ptr, ptr %4, align 8, !tbaa !40
  %21 = getelementptr inbounds nuw %struct.Rtm_Obj_t_, ptr %20, i32 0, i32 5
  %22 = load ptr, ptr %4, align 8, !tbaa !40
  %23 = getelementptr inbounds nuw %struct.Rtm_Obj_t_, ptr %22, i32 0, i32 1
  %24 = load i32, ptr %23, align 8
  %25 = lshr i32 %24, 7
  %26 = and i32 %25, 255
  %27 = zext i32 %26 to i64
  %28 = trunc i64 %27 to i32
  %29 = mul nsw i32 2, %28
  %30 = add nsw i32 %29, 1
  %31 = sext i32 %30 to i64
  %32 = getelementptr inbounds [0 x ptr], ptr %21, i64 0, i64 %31
  store ptr null, ptr %32, align 8, !tbaa !45
  %33 = load ptr, ptr %4, align 8, !tbaa !40
  %34 = load ptr, ptr %5, align 8, !tbaa !40
  %35 = getelementptr inbounds nuw %struct.Rtm_Obj_t_, ptr %34, i32 0, i32 5
  %36 = load ptr, ptr %5, align 8, !tbaa !40
  %37 = getelementptr inbounds nuw %struct.Rtm_Obj_t_, ptr %36, i32 0, i32 1
  %38 = load i32, ptr %37, align 8
  %39 = lshr i32 %38, 15
  %40 = load ptr, ptr %5, align 8, !tbaa !40
  %41 = getelementptr inbounds nuw %struct.Rtm_Obj_t_, ptr %40, i32 0, i32 4
  %42 = load i32, ptr %41, align 4, !tbaa !49
  %43 = add nsw i32 %39, %42
  %44 = mul nsw i32 2, %43
  %45 = sext i32 %44 to i64
  %46 = getelementptr inbounds [0 x ptr], ptr %35, i64 0, i64 %45
  store ptr %33, ptr %46, align 8, !tbaa !45
  %47 = load ptr, ptr %4, align 8, !tbaa !40
  %48 = getelementptr inbounds nuw %struct.Rtm_Obj_t_, ptr %47, i32 0, i32 5
  %49 = getelementptr inbounds [0 x ptr], ptr %48, i64 0, i64 0
  %50 = load ptr, ptr %4, align 8, !tbaa !40
  %51 = getelementptr inbounds nuw %struct.Rtm_Obj_t_, ptr %50, i32 0, i32 1
  %52 = load i32, ptr %51, align 8
  %53 = lshr i32 %52, 7
  %54 = and i32 %53, 255
  %55 = zext i32 %54 to i64
  %56 = trunc i64 %55 to i32
  %57 = mul nsw i32 2, %56
  %58 = sext i32 %57 to i64
  %59 = getelementptr inbounds ptr, ptr %49, i64 %58
  %60 = getelementptr inbounds ptr, ptr %59, i64 1
  %61 = load ptr, ptr %5, align 8, !tbaa !40
  %62 = getelementptr inbounds nuw %struct.Rtm_Obj_t_, ptr %61, i32 0, i32 5
  %63 = load ptr, ptr %5, align 8, !tbaa !40
  %64 = getelementptr inbounds nuw %struct.Rtm_Obj_t_, ptr %63, i32 0, i32 1
  %65 = load i32, ptr %64, align 8
  %66 = lshr i32 %65, 15
  %67 = load ptr, ptr %5, align 8, !tbaa !40
  %68 = getelementptr inbounds nuw %struct.Rtm_Obj_t_, ptr %67, i32 0, i32 4
  %69 = load i32, ptr %68, align 4, !tbaa !49
  %70 = add nsw i32 %66, %69
  %71 = mul nsw i32 2, %70
  %72 = add nsw i32 %71, 1
  %73 = sext i32 %72 to i64
  %74 = getelementptr inbounds [0 x ptr], ptr %62, i64 0, i64 %73
  store ptr %60, ptr %74, align 8, !tbaa !45
  %75 = load ptr, ptr %4, align 8, !tbaa !40
  %76 = getelementptr inbounds nuw %struct.Rtm_Obj_t_, ptr %75, i32 0, i32 1
  %77 = load i32, ptr %76, align 8
  %78 = lshr i32 %77, 7
  %79 = and i32 %78, 255
  %80 = zext i32 %79 to i64
  %81 = trunc i64 %80 to i32
  %82 = icmp eq i32 %81, 0
  br i1 %82, label %83, label %94

83:                                               ; preds = %3
  %84 = load i32, ptr %6, align 4, !tbaa !21
  %85 = sext i32 %84 to i64
  %86 = load ptr, ptr %4, align 8, !tbaa !40
  %87 = getelementptr inbounds nuw %struct.Rtm_Obj_t_, ptr %86, i32 0, i32 1
  %88 = trunc i64 %85 to i32
  %89 = load i32, ptr %87, align 8
  %90 = and i32 %88, 1
  %91 = shl i32 %90, 5
  %92 = and i32 %89, -33
  %93 = or i32 %92, %91
  store i32 %93, ptr %87, align 8
  br label %116

94:                                               ; preds = %3
  %95 = load ptr, ptr %4, align 8, !tbaa !40
  %96 = getelementptr inbounds nuw %struct.Rtm_Obj_t_, ptr %95, i32 0, i32 1
  %97 = load i32, ptr %96, align 8
  %98 = lshr i32 %97, 7
  %99 = and i32 %98, 255
  %100 = zext i32 %99 to i64
  %101 = trunc i64 %100 to i32
  %102 = icmp eq i32 %101, 1
  br i1 %102, label %103, label %114

103:                                              ; preds = %94
  %104 = load i32, ptr %6, align 4, !tbaa !21
  %105 = sext i32 %104 to i64
  %106 = load ptr, ptr %4, align 8, !tbaa !40
  %107 = getelementptr inbounds nuw %struct.Rtm_Obj_t_, ptr %106, i32 0, i32 1
  %108 = trunc i64 %105 to i32
  %109 = load i32, ptr %107, align 8
  %110 = and i32 %108, 1
  %111 = shl i32 %110, 6
  %112 = and i32 %109, -65
  %113 = or i32 %112, %111
  store i32 %113, ptr %107, align 8
  br label %115

114:                                              ; preds = %94
  br label %115

115:                                              ; preds = %114, %103
  br label %116

116:                                              ; preds = %115, %83
  %117 = load ptr, ptr %4, align 8, !tbaa !40
  %118 = getelementptr inbounds nuw %struct.Rtm_Obj_t_, ptr %117, i32 0, i32 1
  %119 = load i32, ptr %118, align 8
  %120 = lshr i32 %119, 7
  %121 = and i32 %120, 255
  %122 = zext i32 %121 to i64
  %123 = add i64 %122, 1
  %124 = trunc i64 %123 to i32
  %125 = load i32, ptr %118, align 8
  %126 = and i32 %124, 255
  %127 = shl i32 %126, 7
  %128 = and i32 %125, -32641
  %129 = or i32 %128, %127
  store i32 %129, ptr %118, align 8
  %130 = load ptr, ptr %5, align 8, !tbaa !40
  %131 = getelementptr inbounds nuw %struct.Rtm_Obj_t_, ptr %130, i32 0, i32 4
  %132 = load i32, ptr %131, align 4, !tbaa !49
  %133 = add nsw i32 %132, 1
  store i32 %133, ptr %131, align 4, !tbaa !49
  ret void
}