; Function Attrs: mustprogress nofree norecurse nosync nounwind willreturn memory(argmem: readwrite) uwtable
define void @Rtm_ObjAddFanin(ptr noundef %0, ptr noundef %1, i32 noundef %2) local_unnamed_addr #9 {
  %4 = getelementptr inbounds nuw i8, ptr %0, i64 24
  %5 = getelementptr inbounds nuw i8, ptr %0, i64 8
  %6 = load i32, ptr %5, align 8
  %7 = lshr i32 %6, 6
  %8 = and i32 %7, 510
  %9 = zext nneg i32 %8 to i64
  %10 = getelementptr inbounds nuw [0 x ptr], ptr %4, i64 0, i64 %9
  store ptr %1, ptr %10, align 8, !tbaa !34
  %11 = or disjoint i32 %8, 1
  %12 = zext nneg i32 %11 to i64
  %13 = getelementptr inbounds nuw [0 x ptr], ptr %4, i64 0, i64 %12
  store ptr null, ptr %13, align 8, !tbaa !34
  %14 = getelementptr inbounds nuw i8, ptr %1, i64 24
  %15 = getelementptr inbounds nuw i8, ptr %1, i64 8
  %16 = load i32, ptr %15, align 8
  %17 = lshr i32 %16, 15
  %18 = getelementptr inbounds nuw i8, ptr %1, i64 20
  %19 = load i32, ptr %18, align 4, !tbaa !41
  %20 = add nsw i32 %17, %19
  %21 = shl nsw i32 %20, 1
  %22 = sext i32 %21 to i64
  %23 = getelementptr inbounds [0 x ptr], ptr %14, i64 0, i64 %22
  store ptr %0, ptr %23, align 8, !tbaa !34
  %24 = load i32, ptr %5, align 8
  %25 = lshr i32 %24, 6
  %26 = and i32 %25, 510
  %27 = zext nneg i32 %26 to i64
  %28 = getelementptr inbounds nuw ptr, ptr %4, i64 %27
  %29 = getelementptr inbounds nuw i8, ptr %28, i64 8
  %30 = load i32, ptr %15, align 8
  %31 = lshr i32 %30, 15
  %32 = add nsw i32 %31, %19
  %33 = shl nsw i32 %32, 1
  %34 = or disjoint i32 %33, 1
  %35 = sext i32 %34 to i64
  %36 = getelementptr inbounds [0 x ptr], ptr %14, i64 0, i64 %35
  store ptr %29, ptr %36, align 8, !tbaa !34
  %37 = load i32, ptr %5, align 8
  %38 = lshr i32 %37, 7
  %trunc = trunc i32 %38 to i8
  switch i8 %trunc, label %49 [
    i8 0, label %39
    i8 1, label %44
  ]

39:                                               ; preds = %3
  %40 = shl i32 %2, 5
  %41 = and i32 %40, 32
  %42 = and i32 %37, -33
  %43 = or disjoint i32 %42, %41
  br label %49

44:                                               ; preds = %3
  %45 = shl i32 %2, 6
  %46 = and i32 %45, 64
  %47 = and i32 %37, -65
  %48 = or disjoint i32 %47, %46
  br label %49

49:                                               ; preds = %3, %44, %39
  %50 = phi i32 [ %37, %3 ], [ %48, %44 ], [ %43, %39 ]
  %51 = add i32 %50, 128
  %52 = and i32 %51, 32640
  %53 = and i32 %50, -32641
  %54 = or disjoint i32 %52, %53
  store i32 %54, ptr %5, align 8
  %55 = load i32, ptr %18, align 4, !tbaa !41
  %56 = add nsw i32 %55, 1
  store i32 %56, ptr %18, align 4, !tbaa !41
  ret void
}